target datalayout = "e-m:e-p270:32:32-p271:32:32-p272:64:64-i64:64-i128:128-f80:128-n8:16:32:64-S128"
target triple = "x86_64-pc-linux-gnu"

; Function Attrs: nounwind uwtable
define internal i64 @vba_normalize(ptr noundef %0, i64 noundef %1) #0 {
  %3 = alloca ptr, align 8
  %4 = alloca i64, align 8
  %5 = alloca i32, align 4
  %6 = alloca i64, align 8
  %7 = alloca i64, align 8
  store ptr %0, ptr %3, align 8
  store i64 %1, ptr %4, align 8
  store i32 0, ptr %5, align 4
  store i64 0, ptr %6, align 8
  store i64 0, ptr %7, align 8
  br label %8

8:                                                ; preds = %147, %2
  %9 = load i64, ptr %7, align 8
  %10 = load i64, ptr %4, align 8
  %11 = icmp ult i64 %9, %10
  br i1 %11, label %12, label %150

12:                                               ; preds = %8
  %13 = load ptr, ptr %3, align 8
  %14 = load i64, ptr %7, align 8
  %15 = getelementptr inbounds i8, ptr %13, i64 %14
  %16 = load i8, ptr %15, align 1
  %17 = zext i8 %16 to i32
  switch i32 %17, label %91 [
    i32 34, label %18
    i32 95, label %38
    i32 13, label %47
    i32 10, label %56
    i32 9, label %75
    i32 32, label %75
  ]

18:                                               ; preds = %12
  %19 = load i32, ptr %5, align 4
  %20 = icmp eq i32 %19, 1
  br i1 %20, label %21, label %22

21:                                               ; preds = %18
  store i32 0, ptr %5, align 4
  br label %33

22:                                               ; preds = %18
  %23 = load i32, ptr %5, align 4
  %24 = icmp eq i32 %23, 0
  br i1 %24, label %31, label %25

25:                                               ; preds = %22
  %26 = load i32, ptr %5, align 4
  %27 = icmp eq i32 %26, 2
  br i1 %27, label %31, label %28

28:                                               ; preds = %25
  %29 = load i32, ptr %5, align 4
  %30 = icmp eq i32 %29, 5
  br i1 %30, label %31, label %32

31:                                               ; preds = %28, %25, %22
  store i32 1, ptr %5, align 4
  br label %32

32:                                               ; preds = %31, %28
  br label %33

33:                                               ; preds = %32, %21
  %34 = load ptr, ptr %3, align 8
  %35 = load i64, ptr %6, align 8
  %36 = add i64 %35, 1
  store i64 %36, ptr %6, align 8
  %37 = getelementptr inbounds i8, ptr %34, i64 %35
  store i8 34, ptr %37, align 1
  br label %146

38:                                               ; preds = %12
  %39 = load i32, ptr %5, align 4
  %40 = icmp eq i32 %39, 5
  br i1 %40, label %41, label %42

41:                                               ; preds = %38
  store i32 2, ptr %5, align 4
  br label %42

42:                                               ; preds = %41, %38
  %43 = load ptr, ptr %3, align 8
  %44 = load i64, ptr %6, align 8
  %45 = add i64 %44, 1
  store i64 %45, ptr %6, align 8
  %46 = getelementptr inbounds i8, ptr %43, i64 %44
  store i8 95, ptr %46, align 1
  br label %146

47:                                               ; preds = %12
  %48 = load i32, ptr %5, align 4
  %49 = icmp eq i32 %48, 2
  br i1 %49, label %50, label %51

50:                                               ; preds = %47
  store i32 3, ptr %5, align 4
  br label %51

51:                                               ; preds = %50, %47
  %52 = load ptr, ptr %3, align 8
  %53 = load i64, ptr %6, align 8
  %54 = add i64 %53, 1
  store i64 %54, ptr %6, align 8
  %55 = getelementptr inbounds i8, ptr %52, i64 %53
  store i8 13, ptr %55, align 1
  br label %146

56:                                               ; preds = %12
  %57 = load i32, ptr %5, align 4
  %58 = icmp eq i32 %57, 2
  br i1 %58, label %59, label %62

59:                                               ; preds = %56
  %60 = load i64, ptr %6, align 8
  %61 = sub i64 %60, 1
  store i64 %61, ptr %6, align 8
  store i32 5, ptr %5, align 4
  br label %74

62:                                               ; preds = %56
  %63 = load i32, ptr %5, align 4
  %64 = icmp eq i32 %63, 3
  br i1 %64, label %65, label %68

65:                                               ; preds = %62
  %66 = load i64, ptr %6, align 8
  %67 = sub i64 %66, 2
  store i64 %67, ptr %6, align 8
  store i32 5, ptr %5, align 4
  br label %73

68:                                               ; preds = %62
  %69 = load ptr, ptr %3, align 8
  %70 = load i64, ptr %6, align 8
  %71 = add i64 %70, 1
  store i64 %71, ptr %6, align 8
  %72 = getelementptr inbounds i8, ptr %69, i64 %70
  store i8 10, ptr %72, align 1
  br label %73

73:                                               ; preds = %68, %65
  br label %74

74:                                               ; preds = %73, %59
  br label %146

75:                                               ; preds = %12, %12
  %76 = load i32, ptr %5, align 4
  %77 = icmp ne i32 %76, 5
  br i1 %77, label %78, label %83

78:                                               ; preds = %75
  %79 = load ptr, ptr %3, align 8
  %80 = load i64, ptr %6, align 8
  %81 = add i64 %80, 1
  store i64 %81, ptr %6, align 8
  %82 = getelementptr inbounds i8, ptr %79, i64 %80
  store i8 32, ptr %82, align 1
  br label %83

83:                                               ; preds = %78, %75
  %84 = load i32, ptr %5, align 4
  %85 = icmp eq i32 %84, 0
  br i1 %85, label %89, label %86

86:                                               ; preds = %83
  %87 = load i32, ptr %5, align 4
  %88 = icmp eq i32 %87, 2
  br i1 %88, label %89, label %90

89:                                               ; preds = %86, %83
  store i32 5, ptr %5, align 4
  br label %90

90:                                               ; preds = %89, %86
  br label %146

91:                                               ; preds = %12
  %92 = load i32, ptr %5, align 4
  %93 = icmp eq i32 %92, 0
  br i1 %93, label %100, label %94

94:                                               ; preds = %91
  %95 = load i32, ptr %5, align 4
  %96 = icmp eq i32 %95, 2
  br i1 %96, label %100, label %97

97:                                               ; preds = %94
  %98 = load i32, ptr %5, align 4
  %99 = icmp eq i32 %98, 5
  br i1 %99, label %100, label %136

100:                                              ; preds = %97, %94, %91
  %101 = load ptr, ptr %3, align 8
  %102 = load i64, ptr %7, align 8
  %103 = getelementptr inbounds i8, ptr %101, i64 %102
  %104 = load i8, ptr %103, align 1
  %105 = zext i8 %104 to i32
  %106 = icmp sge i32 %105, 65
  br i1 %106, label %107, label %126

107:                                              ; preds = %100
  %108 = load ptr, ptr %3, align 8
  %109 = load i64, ptr %7, align 8
  %110 = getelementptr inbounds i8, ptr %108, i64 %109
  %111 = load i8, ptr %110, align 1
  %112 = zext i8 %111 to i32
  %113 = icmp sle i32 %112, 90
  br i1 %113, label %114, label %126

114:                                              ; preds = %107
  %115 = load ptr, ptr %3, align 8
  %116 = load i64, ptr %7, align 8
  %117 = getelementptr inbounds i8, ptr %115, i64 %116
  %118 = load i8, ptr %117, align 1
  %119 = zext i8 %118 to i32
  %120 = call i32 @tolower(i32 noundef %119) #9
  %121 = trunc i32 %120 to i8
  %122 = load ptr, ptr %3, align 8
  %123 = load i64, ptr %6, align 8
  %124 = add i64 %123, 1
  store i64 %124, ptr %6, align 8
  %125 = getelementptr inbounds i8, ptr %122, i64 %123
  store i8 %121, ptr %125, align 1
  br label %135

126:                                              ; preds = %107, %100
  %127 = load ptr, ptr %3, align 8
  %128 = load i64, ptr %7, align 8
  %129 = getelementptr inbounds i8, ptr %127, i64 %128
  %130 = load i8, ptr %129, align 1
  %131 = load ptr, ptr %3, align 8
  %132 = load i64, ptr %6, align 8
  %133 = add i64 %132, 1
  store i64 %133, ptr %6, align 8
  %134 = getelementptr inbounds i8, ptr %131, i64 %132
  store i8 %130, ptr %134, align 1
  br label %135

135:                                              ; preds = %126, %114
  store i32 0, ptr %5, align 4
  br label %145

136:                                              ; preds = %97
  %137 = load ptr, ptr %3, align 8
  %138 = load i64, ptr %7, align 8
  %139 = getelementptr inbounds i8, ptr %137, i64 %138
  %140 = load i8, ptr %139, align 1
  %141 = load ptr, ptr %3, align 8
  %142 = load i64, ptr %6, align 8
  %143 = add i64 %142, 1
  store i64 %143, ptr %6, align 8
  %144 = getelementptr inbounds i8, ptr %141, i64 %142
  store i8 %140, ptr %144, align 1
  br label %145

145:                                              ; preds = %136, %135
  br label %146

146:                                              ; preds = %145, %90, %74, %51, %42, %33
  br label %147

147:                                              ; preds = %146
  %148 = load i64, ptr %7, align 8
  %149 = add i64 %148, 1
  store i64 %149, ptr %7, align 8
  br label %8

150:                                              ; preds = %8
  %151 = load i64, ptr %6, align 8
  ret i64 %151
}