; Function Attrs: nofree nounwind memory(read, argmem: readwrite) uwtable
define internal fastcc i64 @vba_normalize(ptr nocapture noundef %0, i64 noundef %1) unnamed_addr #7 {
  %.not68 = icmp eq i64 %1, 0
  br i1 %.not68, label %._crit_edge, label %.lr.ph

.lr.ph:                                           ; preds = %2, %47
  %.067 = phi i64 [ %48, %47 ], [ 0, %2 ]
  %.05966 = phi i64 [ %.3, %47 ], [ 0, %2 ]
  %.06065 = phi i32 [ %.262, %47 ], [ 0, %2 ]
  %3 = getelementptr inbounds i8, ptr %0, i64 %.067
  %4 = load i8, ptr %3, align 1
  %5 = zext i8 %4 to i32
  switch i8 %4, label %36 [
    i8 34, label %6
    i8 95, label %14
    i8 13, label %18
    i8 10, label %22
    i8 9, label %30
    i8 32, label %30
  ]

6:                                                ; preds = %.lr.ph
  %7 = icmp eq i32 %.06065, 1
  br i1 %7, label %11, label %8

8:                                                ; preds = %6
  %9 = and i32 %.06065, -3
  %or.cond = icmp eq i32 %9, 0
  %10 = icmp eq i32 %.06065, 5
  %or.cond3 = or i1 %10, %or.cond
  %spec.store.select11 = select i1 %or.cond3, i32 1, i32 %.06065
  br label %11

11:                                               ; preds = %6, %8
  %.161 = phi i32 [ %spec.store.select11, %8 ], [ 0, %6 ]
  %12 = add i64 %.05966, 1
  %13 = getelementptr inbounds i8, ptr %0, i64 %.05966
  store i8 34, ptr %13, align 1
  br label %47

14:                                               ; preds = %.lr.ph
  %15 = icmp eq i32 %.06065, 5
  %spec.store.select = select i1 %15, i32 2, i32 %.06065
  %16 = add i64 %.05966, 1
  %17 = getelementptr inbounds i8, ptr %0, i64 %.05966
  store i8 95, ptr %17, align 1
  br label %47

18:                                               ; preds = %.lr.ph
  %19 = icmp eq i32 %.06065, 2
  %spec.store.select4 = select i1 %19, i32 3, i32 %.06065
  %20 = add i64 %.05966, 1
  %21 = getelementptr inbounds i8, ptr %0, i64 %.05966
  store i8 13, ptr %21, align 1
  br label %47

22:                                               ; preds = %.lr.ph
  switch i32 %.06065, label %27 [
    i32 2, label %23
    i32 3, label %25
  ]

23:                                               ; preds = %22
  %24 = add i64 %.05966, -1
  br label %47

25:                                               ; preds = %22
  %26 = add i64 %.05966, -2
  br label %47

27:                                               ; preds = %22
  %28 = add i64 %.05966, 1
  %29 = getelementptr inbounds i8, ptr %0, i64 %.05966
  store i8 10, ptr %29, align 1
  br label %47

30:                                               ; preds = %.lr.ph, %.lr.ph
  %.not = icmp eq i32 %.06065, 5
  br i1 %.not, label %34, label %31

31:                                               ; preds = %30
  %32 = add i64 %.05966, 1
  %33 = getelementptr inbounds i8, ptr %0, i64 %.05966
  store i8 32, ptr %33, align 1
  br label %34

34:                                               ; preds = %31, %30
  %.1 = phi i64 [ %32, %31 ], [ %.05966, %30 ]
  %35 = and i32 %.06065, -3
  %or.cond6 = icmp eq i32 %35, 0
  %spec.store.select12 = select i1 %or.cond6, i32 5, i32 %.06065
  br label %47

36:                                               ; preds = %.lr.ph
  switch i32 %.06065, label %44 [
    i32 5, label %37
    i32 2, label %37
    i32 0, label %37
  ]

37:                                               ; preds = %36, %36, %36
  %38 = add i8 %4, -65
  %or.cond64 = icmp ult i8 %38, 26
  br i1 %or.cond64, label %39, label %42

39:                                               ; preds = %37
  %40 = tail call i32 @tolower(i32 noundef %5) #18
  %41 = trunc i32 %40 to i8
  br label %42

42:                                               ; preds = %37, %39
  %.sink = phi i8 [ %41, %39 ], [ %4, %37 ]
  %43 = getelementptr inbounds i8, ptr %0, i64 %.05966
  store i8 %.sink, ptr %43, align 1
  %.2 = add i64 %.05966, 1
  br label %47

44:                                               ; preds = %36
  %45 = add i64 %.05966, 1
  %46 = getelementptr inbounds i8, ptr %0, i64 %.05966
  store i8 %4, ptr %46, align 1
  br label %47

47:                                               ; preds = %34, %11, %14, %18, %25, %27, %23, %44, %42
  %.262 = phi i32 [ 0, %42 ], [ %.06065, %44 ], [ %spec.store.select12, %34 ], [ 5, %23 ], [ 5, %25 ], [ %.06065, %27 ], [ %spec.store.select4, %18 ], [ %spec.store.select, %14 ], [ %.161, %11 ]
  %.3 = phi i64 [ %.2, %42 ], [ %45, %44 ], [ %.1, %34 ], [ %24, %23 ], [ %26, %25 ], [ %28, %27 ], [ %20, %18 ], [ %16, %14 ], [ %12, %11 ]
  %48 = add nuw i64 %.067, 1
  %exitcond.not = icmp eq i64 %48, %1
  br i1 %exitcond.not, label %._crit_edge, label %.lr.ph

._crit_edge:                                      ; preds = %47, %2
  %.059.lcssa = phi i64 [ 0, %2 ], [ %.3, %47 ]
  ret i64 %.059.lcssa
}